; Function Attrs: mustprogress uwtable
define void @_ZN6icu_776number4impl17blueprint_helpers25parseMeasurePerUnitOptionERKNS_13StringSegmentERNS1_10MacroPropsER10UErrorCode(ptr noundef nonnull align 8 dereferenceable(17) %0, ptr noundef nonnull align 8 dereferenceable(472) %1, ptr noundef nonnull align 4 captures(none) dereferenceable(4) %2) local_unnamed_addr #1 personality ptr @__gxx_personality_v0 {
  %4 = alloca %"class.icu_77::MeasureUnit", align 8
  call void @llvm.lifetime.start.p0(i64 24, ptr nonnull %4) #18
  %5 = getelementptr inbounds nuw i8, ptr %1, i64 16
  call void @_ZN6icu_7711MeasureUnitC1ERKS0_(ptr noundef nonnull align 8 dereferenceable(19) %4, ptr noundef nonnull align 8 dereferenceable(19) %5)
  invoke void @_ZN6icu_776number4impl17blueprint_helpers22parseMeasureUnitOptionERKNS_13StringSegmentERNS1_10MacroPropsER10UErrorCode(ptr noundef nonnull align 8 dereferenceable(17) %0, ptr noundef nonnull align 8 dereferenceable(472) %1, ptr noundef nonnull align 4 dereferenceable(4) %2)
          to label %6 unwind label %9

6:                                                ; preds = %3
  %7 = load i32, ptr %2, align 4, !tbaa !13
  %8 = icmp slt i32 %7, 1
  br i1 %8, label %11, label %16

9:                                                ; preds = %14, %11, %3
  %10 = landingpad { ptr, i32 }
          cleanup
  call void @_ZN6icu_7711MeasureUnitD1Ev(ptr noundef nonnull align 8 dereferenceable(19) %4) #18
  call void @llvm.lifetime.end.p0(i64 24, ptr nonnull %4) #18
  resume { ptr, i32 } %10

11:                                               ; preds = %6
  %12 = getelementptr inbounds nuw i8, ptr %1, i64 40
  %13 = invoke noundef nonnull align 8 dereferenceable(19) ptr @_ZN6icu_7711MeasureUnitaSERKS0_(ptr noundef nonnull align 8 dereferenceable(19) %12, ptr noundef nonnull align 8 dereferenceable(19) %5)
          to label %14 unwind label %9

14:                                               ; preds = %11
  %15 = invoke noundef nonnull align 8 dereferenceable(19) ptr @_ZN6icu_7711MeasureUnitaSERKS0_(ptr noundef nonnull align 8 dereferenceable(19) %5, ptr noundef nonnull align 8 dereferenceable(19) %4)
          to label %16 unwind label %9

16:                                               ; preds = %14, %6
  call void @_ZN6icu_7711MeasureUnitD1Ev(ptr noundef nonnull align 8 dereferenceable(19) %4) #18
  call void @llvm.lifetime.end.p0(i64 24, ptr nonnull %4) #18
  ret void
}